; Function Attrs: nounwind uwtable
define dso_local range(i32 0, 2) i32 @s_p_get_boolean(ptr noundef writeonly captures(none) %0, ptr noundef %1, ptr noundef captures(address_is_null) %2) #0 {
  %4 = tail call fastcc ptr @_get_check(i32 noundef 8, ptr noundef %1, ptr noundef %2)
  %.not = icmp eq ptr %4, null
  br i1 %.not, label %9, label %5

5:                                                ; preds = %3
  %6 = getelementptr inbounds nuw i8, ptr %4, i64 24
  %7 = load ptr, ptr %6, align 8
  %8 = load i8, ptr %7, align 1, !range !33, !noundef !34
  store i8 %8, ptr %0, align 1
  br label %9

9:                                                ; preds = %3, %5
  %.0 = phi i32 [ 1, %5 ], [ 0, %3 ]
  ret i32 %.0
}